target datalayout = "e-m:e-p270:32:32-p271:32:32-p272:64:64-i64:64-i128:128-f80:128-n8:16:32:64-S128"
target triple = "x86_64-pc-linux-gnu"

%class.ciMethodBlocks = type { ptr, ptr, ptr, ptr, i32, i32 }

@_ZN7ciBlockC1EP8ciMethodii = hidden unnamed_addr alias void (ptr, ptr, i32, i32), ptr @_ZN7ciBlockC2EP8ciMethodii

; Function Attrs: mustprogress nounwind uwtable
define hidden noundef ptr @_ZN14ciMethodBlocks16make_dummy_blockEv(ptr noundef nonnull align 8 dereferenceable(40) %0) #1 align 2 {
  %2 = alloca ptr, align 8
  %3 = alloca ptr, align 8
  store ptr %0, ptr %2, align 8
  %4 = load ptr, ptr %2, align 8
  %5 = getelementptr inbounds %class.ciMethodBlocks, ptr %4, i32 0, i32 1
  %6 = load ptr, ptr %5, align 8
  %7 = call noundef ptr @_ZN8ArenaObjnwEmP5Arena(i64 noundef 28, ptr noundef %6) #6
  %8 = icmp eq ptr %7, null
  br i1 %8, label %12, label %9

9:                                                ; preds = %1
  %10 = getelementptr inbounds %class.ciMethodBlocks, ptr %4, i32 0, i32 0
  %11 = load ptr, ptr %10, align 8
  call void @_ZN7ciBlockC1EP8ciMethodii(ptr noundef nonnull align 4 dereferenceable(28) %7, ptr noundef %11, i32 noundef -1, i32 noundef 0)
  br label %12

12:                                               ; preds = %9, %1
  %13 = phi ptr [ %7, %9 ], [ null, %1 ]
  store ptr %13, ptr %3, align 8
  %14 = load ptr, ptr %3, align 8
  ret ptr %14
}