; Function Attrs: mustprogress nounwind uwtable
define hidden noundef ptr @_ZN14ciMethodBlocks16make_dummy_blockEv(ptr nocapture noundef nonnull readonly align 8 dereferenceable(40) %0) local_unnamed_addr #1 align 2 {
  %2 = getelementptr inbounds i8, ptr %0, i64 8
  %3 = load ptr, ptr %2, align 8
  %4 = tail call noundef ptr @_ZN8ArenaObjnwEmP5Arena(i64 noundef 28, ptr noundef %3) #10
  %5 = icmp eq ptr %4, null
  br i1 %5, label %10, label %6

6:                                                ; preds = %1
  store <4 x i32> <i32 -1, i32 0, i32 -1, i32 -1>, ptr %4, align 4
  %7 = getelementptr inbounds i8, ptr %4, i64 16
  store i32 0, ptr %7, align 4
  %8 = getelementptr inbounds i8, ptr %4, i64 20
  store i32 -1, ptr %8, align 4
  %9 = getelementptr inbounds i8, ptr %4, i64 24
  store i32 -1, ptr %9, align 4
  br label %10

10:                                               ; preds = %6, %1
  ret ptr %4
}